; Function Attrs: mustprogress uwtable
define void @_Z17add_param_to_listP18InteractionsOfTypeRK17InteractionOfType(ptr noundef %0, ptr noundef nonnull align 8 dereferenceable(105) %1) local_unnamed_addr #0 {
  %3 = getelementptr inbounds nuw i8, ptr %0, i64 8
  %4 = load ptr, ptr %3, align 8, !tbaa !4
  %5 = getelementptr inbounds nuw i8, ptr %0, i64 16
  %6 = load ptr, ptr %5, align 8, !tbaa !10
  %.not.i = icmp eq ptr %4, %6
  br i1 %.not.i, label %10, label %7

7:                                                ; preds = %2
  tail call void @_ZN17InteractionOfTypeC2ERKS_(ptr noundef nonnull align 8 dereferenceable(105) %4, ptr noundef nonnull align 8 dereferenceable(105) %1)
  %8 = load ptr, ptr %3, align 8, !tbaa !4
  %9 = getelementptr inbounds nuw i8, ptr %8, i64 112
  store ptr %9, ptr %3, align 8, !tbaa !4
  br label %_ZNSt6vectorI17InteractionOfTypeSaIS0_EE12emplace_backIJRKS0_EEERS0_DpOT_.exit

10:                                               ; preds = %2
  tail call void @_ZNSt6vectorI17InteractionOfTypeSaIS0_EE17_M_realloc_insertIJRKS0_EEEvN9__gnu_cxx17__normal_iteratorIPS0_S2_EEDpOT_(ptr noundef nonnull align 8 dereferenceable(24) %0, ptr %4, ptr noundef nonnull align 8 dereferenceable(105) %1)
  br label %_ZNSt6vectorI17InteractionOfTypeSaIS0_EE12emplace_backIJRKS0_EEERS0_DpOT_.exit

_ZNSt6vectorI17InteractionOfTypeSaIS0_EE12emplace_backIJRKS0_EEERS0_DpOT_.exit: ; preds = %7, %10
  ret void
}